target datalayout = "e-m:e-p270:32:32-p271:32:32-p272:64:64-i64:64-i128:128-f80:128-n8:16:32:64-S128"
target triple = "x86_64-pc-linux-gnu"

%struct.ogg_codec = type { ptr, i8, ptr, ptr, ptr, ptr, i32, i32, ptr }
%struct.AVFormatContext = type { ptr, ptr, ptr, ptr, ptr, i32, i32, ptr, i32, ptr, i32, ptr, ptr, i64, i64, i64, i32, i32, i32, i64, i64, ptr, i32, i32, ptr, i32, i32, i32, i32, ptr, i64, i32, i32, %struct.AVIOInterruptCB, i32, i32, i32, i32, i64, i32, i32, i32, i32, i32, i32, i32, i32, i32, i32, i32, i32, i64, i32, i32, i32, i32, i32, ptr, ptr, ptr, ptr, i32, ptr, ptr, ptr, ptr, i32, ptr, ptr, i64, ptr, ptr, ptr, i64 }
%struct.AVIOInterruptCB = type { ptr, ptr }
%struct.ogg = type { ptr, i32, i32, i32, i64, ptr }
%struct.ogg_stream = type { ptr, i32, i32, i32, i32, i32, i32, i32, i64, i64, i64, i64, i64, i64, i32, ptr, i32, i32, i32, [255 x i8], i32, i32, i32, i32, i32, i32, i32, i32, ptr, i64, ptr }

; Function Attrs: nounwind uwtable
define internal void @free_stream(ptr noundef %0, i32 noundef %1) #0 {
  %3 = alloca ptr, align 8
  %4 = alloca i32, align 4
  %5 = alloca ptr, align 8
  %6 = alloca ptr, align 8
  store ptr %0, ptr %3, align 8, !tbaa !14
  store i32 %1, ptr %4, align 4, !tbaa !37
  call void @llvm.lifetime.start.p0(i64 8, ptr %5) #10
  %7 = load ptr, ptr %3, align 8, !tbaa !14
  %8 = getelementptr inbounds nuw %struct.AVFormatContext, ptr %7, i32 0, i32 3
  %9 = load ptr, ptr %8, align 8, !tbaa !16
  store ptr %9, ptr %5, align 8, !tbaa !31
  call void @llvm.lifetime.start.p0(i64 8, ptr %6) #10
  %10 = load ptr, ptr %5, align 8, !tbaa !31
  %11 = getelementptr inbounds nuw %struct.ogg, ptr %10, i32 0, i32 0
  %12 = load ptr, ptr %11, align 8, !tbaa !42
  %13 = load i32, ptr %4, align 4, !tbaa !37
  %14 = sext i32 %13 to i64
  %15 = getelementptr inbounds %struct.ogg_stream, ptr %12, i64 %14
  store ptr %15, ptr %6, align 8, !tbaa !43
  %16 = load ptr, ptr %6, align 8, !tbaa !43
  %17 = getelementptr inbounds nuw %struct.ogg_stream, ptr %16, i32 0, i32 0
  call void @av_freep(ptr noundef %17)
  %18 = load ptr, ptr %6, align 8, !tbaa !43
  %19 = getelementptr inbounds nuw %struct.ogg_stream, ptr %18, i32 0, i32 15
  %20 = load ptr, ptr %19, align 8, !tbaa !47
  %21 = icmp ne ptr %20, null
  br i1 %21, label %22, label %37

22:                                               ; preds = %2
  %23 = load ptr, ptr %6, align 8, !tbaa !43
  %24 = getelementptr inbounds nuw %struct.ogg_stream, ptr %23, i32 0, i32 15
  %25 = load ptr, ptr %24, align 8, !tbaa !47
  %26 = getelementptr inbounds nuw %struct.ogg_codec, ptr %25, i32 0, i32 8
  %27 = load ptr, ptr %26, align 8, !tbaa !157
  %28 = icmp ne ptr %27, null
  br i1 %28, label %29, label %37

29:                                               ; preds = %22
  %30 = load ptr, ptr %6, align 8, !tbaa !43
  %31 = getelementptr inbounds nuw %struct.ogg_stream, ptr %30, i32 0, i32 15
  %32 = load ptr, ptr %31, align 8, !tbaa !47
  %33 = getelementptr inbounds nuw %struct.ogg_codec, ptr %32, i32 0, i32 8
  %34 = load ptr, ptr %33, align 8, !tbaa !157
  %35 = load ptr, ptr %3, align 8, !tbaa !14
  %36 = load i32, ptr %4, align 4, !tbaa !37
  call void %34(ptr noundef %35, i32 noundef %36)
  br label %37

37:                                               ; preds = %29, %22, %2
  %38 = load ptr, ptr %6, align 8, !tbaa !43
  %39 = getelementptr inbounds nuw %struct.ogg_stream, ptr %38, i32 0, i32 30
  call void @av_freep(ptr noundef %39)
  %40 = load ptr, ptr %6, align 8, !tbaa !43
  %41 = getelementptr inbounds nuw %struct.ogg_stream, ptr %40, i32 0, i32 28
  call void @av_freep(ptr noundef %41)
  call void @llvm.lifetime.end.p0(i64 8, ptr %6) #10
  call void @llvm.lifetime.end.p0(i64 8, ptr %5) #10
  ret void
}

; Function Attrs: nounwind uwtable
define internal i32 @ogg_read_close(ptr noundef %0) #0 {
  %2 = alloca ptr, align 8
  %3 = alloca ptr, align 8
  %4 = alloca i32, align 4
  store ptr %0, ptr %2, align 8, !tbaa !14
  call void @llvm.lifetime.start.p0(i64 8, ptr %3) #10
  %5 = load ptr, ptr %2, align 8, !tbaa !14
  %6 = getelementptr inbounds nuw %struct.AVFormatContext, ptr %5, i32 0, i32 3
  %7 = load ptr, ptr %6, align 8, !tbaa !16
  store ptr %7, ptr %3, align 8, !tbaa !31
  call void @llvm.lifetime.start.p0(i64 4, ptr %4) #10
  store i32 0, ptr %4, align 4, !tbaa !37
  br label %8

8:                                                ; preds = %17, %1
  %9 = load i32, ptr %4, align 4, !tbaa !37
  %10 = load ptr, ptr %3, align 8, !tbaa !31
  %11 = getelementptr inbounds nuw %struct.ogg, ptr %10, i32 0, i32 1
  %12 = load i32, ptr %11, align 8, !tbaa !41
  %13 = icmp slt i32 %9, %12
  br i1 %13, label %14, label %20

14:                                               ; preds = %8
  %15 = load ptr, ptr %2, align 8, !tbaa !14
  %16 = load i32, ptr %4, align 4, !tbaa !37
  call void @free_stream(ptr noundef %15, i32 noundef %16)
  br label %17

17:                                               ; preds = %14
  %18 = load i32, ptr %4, align 4, !tbaa !37
  %19 = add nsw i32 %18, 1
  store i32 %19, ptr %4, align 4, !tbaa !37
  br label %8, !llvm.loop !86

20:                                               ; preds = %8
  %21 = load ptr, ptr %3, align 8, !tbaa !31
  %22 = getelementptr inbounds nuw %struct.ogg, ptr %21, i32 0, i32 1
  store i32 0, ptr %22, align 8, !tbaa !41
  %23 = load ptr, ptr %3, align 8, !tbaa !31
  %24 = getelementptr inbounds nuw %struct.ogg, ptr %23, i32 0, i32 0
  call void @av_freep(ptr noundef %24)
  call void @llvm.lifetime.end.p0(i64 4, ptr %4) #10
  call void @llvm.lifetime.end.p0(i64 8, ptr %3) #10
  ret i32 0
}