; Function Attrs: nounwind uwtable
define internal noundef i32 @ogg_read_close(ptr noundef %0) #1 {
  %2 = getelementptr inbounds nuw i8, ptr %0, i64 24
  %3 = load ptr, ptr %2, align 8, !tbaa !12
  %4 = getelementptr inbounds nuw i8, ptr %3, i64 8
  %5 = load i32, ptr %4, align 8, !tbaa !34
  %6 = icmp sgt i32 %5, 0
  br i1 %6, label %.lr.ph, label %._crit_edge

.lr.ph:                                           ; preds = %1, %free_stream.exit
  %indvars.iv = phi i64 [ %indvars.iv.next, %free_stream.exit ], [ 0, %1 ]
  %7 = load ptr, ptr %2, align 8, !tbaa !12
  %8 = load ptr, ptr %7, align 8, !tbaa !35
  %9 = getelementptr inbounds nuw %struct.ogg_stream, ptr %8, i64 %indvars.iv
  tail call void @av_freep(ptr noundef %9) #9
  %10 = getelementptr inbounds nuw i8, ptr %9, i64 96
  %11 = load ptr, ptr %10, align 8, !tbaa !39
  %.not.i = icmp eq ptr %11, null
  br i1 %.not.i, label %free_stream.exit, label %12

12:                                               ; preds = %.lr.ph
  %13 = getelementptr inbounds nuw i8, ptr %11, i64 56
  %14 = load ptr, ptr %13, align 8, !tbaa !107
  %.not11.i = icmp eq ptr %14, null
  br i1 %.not11.i, label %free_stream.exit, label %15

15:                                               ; preds = %12
  %16 = trunc nuw nsw i64 %indvars.iv to i32
  tail call void %14(ptr noundef nonnull %0, i32 noundef %16) #9
  br label %free_stream.exit

free_stream.exit:                                 ; preds = %.lr.ph, %12, %15
  %17 = getelementptr inbounds nuw i8, ptr %9, i64 424
  tail call void @av_freep(ptr noundef nonnull %17) #9
  %18 = getelementptr inbounds nuw i8, ptr %9, i64 408
  tail call void @av_freep(ptr noundef nonnull %18) #9
  %indvars.iv.next = add nuw nsw i64 %indvars.iv, 1
  %19 = load i32, ptr %4, align 8, !tbaa !34
  %20 = sext i32 %19 to i64
  %21 = icmp slt i64 %indvars.iv.next, %20
  br i1 %21, label %.lr.ph, label %._crit_edge, !llvm.loop !108

._crit_edge:                                      ; preds = %free_stream.exit, %1
  store i32 0, ptr %4, align 8, !tbaa !34
  tail call void @av_freep(ptr noundef nonnull %3) #9
  ret i32 0
}